; Function Attrs: nounwind uwtable
define void @Dar_ManCutsRestart(ptr noundef captures(none) %0, ptr noundef readnone captures(none) %1) local_unnamed_addr #3 {
  %3 = getelementptr inbounds nuw i8, ptr %0, i64 8
  %4 = load ptr, ptr %3, align 8, !tbaa !38
  %5 = getelementptr i8, ptr %4, i64 48
  %.val11 = load ptr, ptr %5, align 8, !tbaa !48
  %6 = getelementptr inbounds nuw i8, ptr %.val11, i64 40
  store ptr null, ptr %6, align 8, !tbaa !13
  %7 = getelementptr inbounds nuw i8, ptr %0, i64 32
  %8 = load ptr, ptr %7, align 8, !tbaa !30
  %9 = getelementptr i8, ptr %8, i64 4
  %.val1316 = load i32, ptr %9, align 4, !tbaa !31
  %10 = icmp sgt i32 %.val1316, 0
  br i1 %10, label %.lr.ph, label %.critedge

.lr.ph:                                           ; preds = %2, %19
  %11 = phi ptr [ %20, %19 ], [ %8, %2 ]
  %indvars.iv = phi i64 [ %indvars.iv.next, %19 ], [ 0, %2 ]
  %12 = getelementptr i8, ptr %11, i64 8
  %.val = load ptr, ptr %12, align 8, !tbaa !34
  %13 = getelementptr inbounds nuw ptr, ptr %.val, i64 %indvars.iv
  %14 = load ptr, ptr %13, align 8, !tbaa !35
  %15 = getelementptr i8, ptr %14, i64 24
  %.val14 = load i64, ptr %15, align 8
  %16 = and i64 %.val14, 7
  %.not = icmp eq i64 %16, 0
  br i1 %.not, label %19, label %17

17:                                               ; preds = %.lr.ph
  %18 = getelementptr inbounds nuw i8, ptr %14, i64 40
  store ptr null, ptr %18, align 8, !tbaa !13
  %.pre = load ptr, ptr %7, align 8, !tbaa !30
  br label %19

19:                                               ; preds = %.lr.ph, %17
  %20 = phi ptr [ %11, %.lr.ph ], [ %.pre, %17 ]
  %indvars.iv.next = add nuw nsw i64 %indvars.iv, 1
  %21 = getelementptr i8, ptr %20, i64 4
  %.val13 = load i32, ptr %21, align 4, !tbaa !31
  %22 = sext i32 %.val13 to i64
  %23 = icmp slt i64 %indvars.iv.next, %22
  br i1 %23, label %.lr.ph, label %.critedge, !llvm.loop !49

.critedge:                                        ; preds = %19, %2
  %.lcssa15 = phi ptr [ %8, %2 ], [ %20, %19 ]
  %24 = getelementptr i8, ptr %.lcssa15, i64 4
  store i32 0, ptr %24, align 4, !tbaa !31
  %25 = getelementptr inbounds nuw i8, ptr %0, i64 16
  %26 = load ptr, ptr %25, align 8, !tbaa !19
  tail call void @Aig_MmFixedRestart(ptr noundef %26) #12
  %27 = load ptr, ptr %3, align 8, !tbaa !38
  %28 = getelementptr i8, ptr %27, i64 48
  %.val12 = load ptr, ptr %28, align 8, !tbaa !48
  %29 = tail call ptr @Dar_ObjPrepareCuts(ptr noundef nonnull %0, ptr noundef %.val12)
  ret void
}